; Function Attrs: nounwind uwtable
define dso_local range(i32 -1, 1) i32 @pq_setkeepalivesidle(i32 noundef %0, ptr noundef %1) local_unnamed_addr #0 {
  %3 = alloca i32, align 4
  %4 = alloca i32, align 4
  store i32 %0, ptr %4, align 4
  %5 = icmp eq ptr %1, null
  br i1 %5, label %48, label %6

6:                                                ; preds = %2
  %7 = getelementptr inbounds nuw i8, ptr %1, i64 16
  %8 = load i16, ptr %7, align 8
  %9 = icmp eq i16 %8, 1
  br i1 %9, label %48, label %10

10:                                               ; preds = %6
  %11 = getelementptr inbounds nuw i8, ptr %1, i64 384
  %12 = load i32, ptr %11, align 8
  %13 = icmp eq i32 %0, %12
  br i1 %13, label %48, label %14

14:                                               ; preds = %10
  %15 = getelementptr inbounds nuw i8, ptr %1, i64 368
  %16 = load i32, ptr %15, align 8
  %17 = icmp slt i32 %16, 1
  br i1 %17, label %18, label %34

18:                                               ; preds = %14
  %.not.i = icmp eq i32 %12, 0
  br i1 %.not.i, label %19, label %pq_getkeepalivesidle.exit

19:                                               ; preds = %18
  %20 = icmp eq i32 %16, 0
  br i1 %20, label %21, label %pq_getkeepalivesidle.exit.thread

21:                                               ; preds = %19
  call void @llvm.lifetime.start.p0(i64 4, ptr nonnull %3) #21
  store i32 4, ptr %3, align 4
  %22 = load i32, ptr %1, align 8
  %23 = call i32 @getsockopt(i32 noundef %22, i32 noundef 6, i32 noundef 4, ptr noundef nonnull %15, ptr noundef nonnull %3) #21
  %24 = icmp slt i32 %23, 0
  br i1 %24, label %25, label %._crit_edge.i

._crit_edge.i:                                    ; preds = %21
  %.pre.pre.i = load i32, ptr %15, align 8
  br label %30

25:                                               ; preds = %21
  %26 = call zeroext i1 @errstart(i32 noundef 15, ptr noundef null) #21
  br i1 %26, label %27, label %29

27:                                               ; preds = %25
  %28 = call i32 (ptr, ...) @errmsg(ptr noundef nonnull @.str.3, ptr noundef nonnull @.str.35, ptr noundef nonnull @.str.36) #21
  call void @errfinish(ptr noundef nonnull @.str.2, i32 noundef 1649, ptr noundef nonnull @__func__.pq_getkeepalivesidle) #21
  br label %29

29:                                               ; preds = %27, %25
  store i32 -1, ptr %15, align 8
  br label %30

30:                                               ; preds = %29, %._crit_edge.i
  %.pre.i = phi i32 [ %.pre.pre.i, %._crit_edge.i ], [ -1, %29 ]
  call void @llvm.lifetime.end.p0(i64 4, ptr nonnull %3) #21
  br label %pq_getkeepalivesidle.exit

pq_getkeepalivesidle.exit:                        ; preds = %18, %30
  %31 = phi i32 [ %16, %18 ], [ %.pre.i, %30 ]
  %.0.i = phi i32 [ %12, %18 ], [ %.pre.i, %30 ]
  %32 = icmp slt i32 %.0.i, 0
  br i1 %32, label %pq_getkeepalivesidle.exit.thread, label %34

pq_getkeepalivesidle.exit.thread:                 ; preds = %19, %pq_getkeepalivesidle.exit
  %33 = icmp ne i32 %0, 0
  %. = sext i1 %33 to i32
  br label %48

34:                                               ; preds = %pq_getkeepalivesidle.exit, %14
  %35 = phi i32 [ %31, %pq_getkeepalivesidle.exit ], [ %16, %14 ]
  %36 = icmp eq i32 %0, 0
  br i1 %36, label %37, label %38

37:                                               ; preds = %34
  store i32 %35, ptr %4, align 4
  br label %38

38:                                               ; preds = %37, %34
  %39 = load i32, ptr %1, align 8
  %40 = call i32 @setsockopt(i32 noundef %39, i32 noundef 6, i32 noundef 4, ptr noundef nonnull %4, i32 noundef 4) #21
  %41 = icmp slt i32 %40, 0
  br i1 %41, label %42, label %46

42:                                               ; preds = %38
  %43 = call zeroext i1 @errstart(i32 noundef 15, ptr noundef null) #21
  br i1 %43, label %44, label %48

44:                                               ; preds = %42
  %45 = call i32 (ptr, ...) @errmsg(ptr noundef nonnull @.str.3, ptr noundef nonnull @.str.4, ptr noundef nonnull @.str.36) #21
  call void @errfinish(ptr noundef nonnull @.str.2, i32 noundef 1694, ptr noundef nonnull @__func__.pq_setkeepalivesidle) #21
  br label %48

46:                                               ; preds = %38
  %47 = load i32, ptr %4, align 4
  store i32 %47, ptr %11, align 8
  br label %48

48:                                               ; preds = %44, %42, %pq_getkeepalivesidle.exit.thread, %10, %2, %6, %46
  %.0 = phi i32 [ 0, %46 ], [ 0, %6 ], [ 0, %2 ], [ 0, %10 ], [ %., %pq_getkeepalivesidle.exit.thread ], [ -1, %42 ], [ -1, %44 ]
  ret i32 %.0
}